target datalayout = "e-m:e-p270:32:32-p271:32:32-p272:64:64-i64:64-i128:128-f80:128-n8:16:32:64-S128"
target triple = "x86_64-pc-linux-gnu"

%class.MutualInfo = type { i32, i8, i32, ptr, ptr, ptr }

; Function Attrs: mustprogress nounwind uwtable
define void @_ZN10MutualInfo9histogramEiiPhS0_iiii(ptr noundef nonnull align 8 dereferenceable(40) %0, i32 noundef %1, i32 noundef %2, ptr noundef %3, ptr noundef %4, i32 noundef %5, i32 noundef %6, i32 noundef %7, i32 noundef %8) #5 align 2 {
  %10 = alloca ptr, align 8
  %11 = alloca i32, align 4
  %12 = alloca i32, align 4
  %13 = alloca ptr, align 8
  %14 = alloca ptr, align 8
  %15 = alloca i32, align 4
  %16 = alloca i32, align 4
  %17 = alloca i32, align 4
  %18 = alloca i32, align 4
  %19 = alloca i32, align 4
  %20 = alloca i32, align 4
  %21 = alloca i32, align 4
  %22 = alloca i32, align 4
  %23 = alloca i32, align 4
  %24 = alloca i32, align 4
  %25 = alloca i32, align 4
  %26 = alloca i8, align 1
  %27 = alloca i8, align 1
  %28 = alloca i32, align 4
  store ptr %0, ptr %10, align 8
  store i32 %1, ptr %11, align 4
  store i32 %2, ptr %12, align 4
  store ptr %3, ptr %13, align 8
  store ptr %4, ptr %14, align 8
  store i32 %5, ptr %15, align 4
  store i32 %6, ptr %16, align 4
  store i32 %7, ptr %17, align 4
  store i32 %8, ptr %18, align 4
  %29 = load ptr, ptr %10, align 8
  %30 = load i32, ptr %16, align 4
  %31 = icmp eq i32 %30, 0
  br i1 %31, label %32, label %34

32:                                               ; preds = %9
  %33 = load i32, ptr %11, align 4
  store i32 %33, ptr %16, align 4
  br label %34

34:                                               ; preds = %32, %9
  %35 = load i32, ptr %18, align 4
  %36 = icmp eq i32 %35, 0
  br i1 %36, label %37, label %39

37:                                               ; preds = %34
  %38 = load i32, ptr %12, align 4
  store i32 %38, ptr %18, align 4
  br label %39

39:                                               ; preds = %37, %34
  %40 = getelementptr inbounds %class.MutualInfo, ptr %29, i32 0, i32 3
  %41 = load ptr, ptr %40, align 8
  %42 = getelementptr inbounds %class.MutualInfo, ptr %29, i32 0, i32 2
  %43 = load i32, ptr %42, align 8
  %44 = getelementptr inbounds %class.MutualInfo, ptr %29, i32 0, i32 2
  %45 = load i32, ptr %44, align 8
  %46 = mul i32 %43, %45
  %47 = zext i32 %46 to i64
  %48 = mul i64 %47, 4
  call void @llvm.memset.p0.i64(ptr align 4 %41, i8 0, i64 %48, i1 false)
  %49 = getelementptr inbounds %class.MutualInfo, ptr %29, i32 0, i32 2
  %50 = load i32, ptr %49, align 8
  %51 = udiv i32 256, %50
  store i32 %51, ptr %19, align 4
  store i32 0, ptr %20, align 4
  br label %52

52:                                               ; preds = %56, %39
  %53 = load i32, ptr %19, align 4
  %54 = ashr i32 %53, 1
  store i32 %54, ptr %19, align 4
  %55 = icmp ne i32 %54, 0
  br i1 %55, label %56, label %59

56:                                               ; preds = %52
  %57 = load i32, ptr %20, align 4
  %58 = add nsw i32 %57, 1
  store i32 %58, ptr %20, align 4
  br label %52, !llvm.loop !10

59:                                               ; preds = %52
  %60 = getelementptr inbounds %class.MutualInfo, ptr %29, i32 0, i32 2
  %61 = load i32, ptr %60, align 8
  store i32 %61, ptr %21, align 4
  store i32 0, ptr %22, align 4
  br label %62

62:                                               ; preds = %66, %59
  %63 = load i32, ptr %21, align 4
  %64 = ashr i32 %63, 1
  store i32 %64, ptr %21, align 4
  %65 = icmp ne i32 %64, 0
  br i1 %65, label %66, label %69

66:                                               ; preds = %62
  %67 = load i32, ptr %22, align 4
  %68 = add nsw i32 %67, 1
  store i32 %68, ptr %22, align 4
  br label %62, !llvm.loop !11

69:                                               ; preds = %62
  %70 = load i32, ptr %17, align 4
  store i32 %70, ptr %23, align 4
  br label %71

71:                                               ; preds = %124, %69
  %72 = load i32, ptr %23, align 4
  %73 = load i32, ptr %18, align 4
  %74 = icmp slt i32 %72, %73
  br i1 %74, label %75, label %127

75:                                               ; preds = %71
  %76 = load i32, ptr %11, align 4
  %77 = load i32, ptr %23, align 4
  %78 = mul nsw i32 %76, %77
  %79 = load i32, ptr %15, align 4
  %80 = add nsw i32 %78, %79
  store i32 %80, ptr %24, align 4
  %81 = load i32, ptr %15, align 4
  store i32 %81, ptr %25, align 4
  br label %82

82:                                               ; preds = %118, %75
  %83 = load i32, ptr %25, align 4
  %84 = load i32, ptr %16, align 4
  %85 = icmp slt i32 %83, %84
  br i1 %85, label %86, label %123

86:                                               ; preds = %82
  %87 = load ptr, ptr %13, align 8
  %88 = load i32, ptr %24, align 4
  %89 = sext i32 %88 to i64
  %90 = getelementptr inbounds i8, ptr %87, i64 %89
  %91 = load i8, ptr %90, align 1
  %92 = zext i8 %91 to i32
  %93 = load i32, ptr %20, align 4
  %94 = ashr i32 %92, %93
  %95 = trunc i32 %94 to i8
  store i8 %95, ptr %26, align 1
  %96 = load ptr, ptr %14, align 8
  %97 = load i32, ptr %24, align 4
  %98 = sext i32 %97 to i64
  %99 = getelementptr inbounds i8, ptr %96, i64 %98
  %100 = load i8, ptr %99, align 1
  %101 = zext i8 %100 to i32
  %102 = load i32, ptr %20, align 4
  %103 = ashr i32 %101, %102
  %104 = trunc i32 %103 to i8
  store i8 %104, ptr %27, align 1
  %105 = getelementptr inbounds %class.MutualInfo, ptr %29, i32 0, i32 3
  %106 = load ptr, ptr %105, align 8
  %107 = load i8, ptr %26, align 1
  %108 = zext i8 %107 to i32
  %109 = load i8, ptr %27, align 1
  %110 = zext i8 %109 to i32
  %111 = load i32, ptr %22, align 4
  %112 = shl i32 %110, %111
  %113 = add nsw i32 %108, %112
  %114 = sext i32 %113 to i64
  %115 = getelementptr inbounds i32, ptr %106, i64 %114
  %116 = load i32, ptr %115, align 4
  %117 = add i32 %116, 2
  store i32 %117, ptr %115, align 4
  br label %118

118:                                              ; preds = %86
  %119 = load i32, ptr %25, align 4
  %120 = add nsw i32 %119, 1
  store i32 %120, ptr %25, align 4
  %121 = load i32, ptr %24, align 4
  %122 = add nsw i32 %121, 1
  store i32 %122, ptr %24, align 4
  br label %82, !llvm.loop !12

123:                                              ; preds = %82
  br label %124

124:                                              ; preds = %123
  %125 = load i32, ptr %23, align 4
  %126 = add nsw i32 %125, 1
  store i32 %126, ptr %23, align 4
  br label %71, !llvm.loop !13

127:                                              ; preds = %71
  %128 = getelementptr inbounds %class.MutualInfo, ptr %29, i32 0, i32 0
  %129 = load i32, ptr %128, align 8
  %130 = icmp ne i32 %129, 0
  br i1 %130, label %131, label %151

131:                                              ; preds = %127
  store i32 0, ptr %28, align 4
  br label %132

132:                                              ; preds = %147, %131
  %133 = load i32, ptr %28, align 4
  %134 = getelementptr inbounds %class.MutualInfo, ptr %29, i32 0, i32 2
  %135 = load i32, ptr %134, align 8
  %136 = icmp ult i32 %133, %135
  br i1 %136, label %137, label %150

137:                                              ; preds = %132
  %138 = getelementptr inbounds %class.MutualInfo, ptr %29, i32 0, i32 0
  %139 = load i32, ptr %138, align 8
  %140 = getelementptr inbounds %class.MutualInfo, ptr %29, i32 0, i32 3
  %141 = load ptr, ptr %140, align 8
  %142 = load i32, ptr %28, align 4
  %143 = zext i32 %142 to i64
  %144 = getelementptr inbounds i32, ptr %141, i64 %143
  %145 = load i32, ptr %144, align 4
  %146 = udiv i32 %145, %139
  store i32 %146, ptr %144, align 4
  br label %147

147:                                              ; preds = %137
  %148 = load i32, ptr %28, align 4
  %149 = add i32 %148, 1
  store i32 %149, ptr %28, align 4
  br label %132, !llvm.loop !14

150:                                              ; preds = %132
  br label %158

151:                                              ; preds = %127
  %152 = getelementptr inbounds %class.MutualInfo, ptr %29, i32 0, i32 3
  %153 = load ptr, ptr %152, align 8
  %154 = getelementptr inbounds %class.MutualInfo, ptr %29, i32 0, i32 2
  %155 = load i32, ptr %154, align 8
  %156 = zext i32 %155 to i64
  %157 = mul i64 %156, 4
  call void @llvm.memset.p0.i64(ptr align 4 %153, i8 0, i64 %157, i1 false)
  br label %158

158:                                              ; preds = %151, %150
  ret void
}