; Function Attrs: mustprogress nofree norecurse nosync nounwind memory(readwrite, inaccessiblemem: none) uwtable
define void @_ZN10MutualInfo9histogramEiiPhS0_iiii(ptr noundef nonnull readonly align 8 captures(none) dereferenceable(40) %0, i32 noundef %1, i32 noundef %2, ptr noundef readonly captures(none) %3, ptr noundef readonly captures(none) %4, i32 noundef %5, i32 noundef %6, i32 noundef %7, i32 noundef %8) local_unnamed_addr #8 align 2 {
  %10 = icmp eq i32 %6, 0
  %spec.select = select i1 %10, i32 %1, i32 %6
  %11 = icmp eq i32 %8, 0
  %.033 = select i1 %11, i32 %2, i32 %8
  %12 = getelementptr inbounds nuw i8, ptr %0, i64 16
  %13 = load ptr, ptr %12, align 8
  %14 = getelementptr inbounds nuw i8, ptr %0, i64 8
  %15 = load i32, ptr %14, align 8
  %16 = mul i32 %15, %15
  %17 = zext i32 %16 to i64
  %18 = shl nuw nsw i64 %17, 2
  tail call void @llvm.memset.p0.i64(ptr align 4 %13, i8 0, i64 %18, i1 false)
  %19 = load i32, ptr %14, align 8
  %.not49 = icmp ugt i32 %19, 128
  br i1 %.not49, label %.lr.ph55.preheader, label %.lr.ph.preheader

.lr.ph.preheader:                                 ; preds = %9
  %.rhs.trunc = trunc nuw i32 %19 to i16
  %20 = udiv i16 256, %.rhs.trunc
  %.zext = zext nneg i16 %20 to i32
  br label %.lr.ph

.preheader48:                                     ; preds = %.lr.ph
  %.not4552 = icmp ult i32 %19, 2
  br i1 %.not4552, label %.preheader47, label %.lr.ph55.preheader

.lr.ph55.preheader:                               ; preds = %9, %.preheader48
  %.039.lcssa77 = phi i32 [ %22, %.preheader48 ], [ 0, %9 ]
  br label %.lr.ph55

.lr.ph:                                           ; preds = %.lr.ph.preheader, %.lr.ph
  %.03951 = phi i32 [ %22, %.lr.ph ], [ 0, %.lr.ph.preheader ]
  %.04050 = phi i32 [ %21, %.lr.ph ], [ %.zext, %.lr.ph.preheader ]
  %21 = lshr i32 %.04050, 1
  %22 = add nuw nsw i32 %.03951, 1
  %.not = icmp samesign ult i32 %.04050, 4
  br i1 %.not, label %.preheader48, label %.lr.ph, !llvm.loop !11

.preheader47:                                     ; preds = %.lr.ph55, %.preheader48
  %.039.lcssa78 = phi i32 [ %22, %.preheader48 ], [ %.039.lcssa77, %.lr.ph55 ]
  %.037.lcssa = phi i32 [ 0, %.preheader48 ], [ %47, %.lr.ph55 ]
  %23 = icmp slt i32 %7, %.033
  %24 = icmp slt i32 %5, %spec.select
  %or.cond = and i1 %23, %24
  br i1 %or.cond, label %.lr.ph59.us.preheader, label %._crit_edge62

.lr.ph59.us.preheader:                            ; preds = %.preheader47
  %25 = mul i32 %7, %1
  %26 = add i32 %5, %25
  br label %.lr.ph59.us

.lr.ph59.us:                                      ; preds = %.lr.ph59.us.preheader, %._crit_edge.us
  %indvars.iv = phi i32 [ %26, %.lr.ph59.us.preheader ], [ %indvars.iv.next, %._crit_edge.us ]
  %.03660.us = phi i32 [ %7, %.lr.ph59.us.preheader ], [ %45, %._crit_edge.us ]
  %27 = sext i32 %indvars.iv to i64
  br label %28

28:                                               ; preds = %.lr.ph59.us, %28
  %indvars.iv68 = phi i64 [ %27, %.lr.ph59.us ], [ %indvars.iv.next69, %28 ]
  %.03458.us = phi i32 [ %5, %.lr.ph59.us ], [ %44, %28 ]
  %29 = getelementptr inbounds i8, ptr %3, i64 %indvars.iv68
  %30 = load i8, ptr %29, align 1
  %31 = zext i8 %30 to i32
  %32 = lshr i32 %31, %.039.lcssa78
  %33 = getelementptr inbounds i8, ptr %4, i64 %indvars.iv68
  %34 = load i8, ptr %33, align 1
  %35 = zext i8 %34 to i32
  %36 = lshr i32 %35, %.039.lcssa78
  %37 = load ptr, ptr %12, align 8
  %38 = shl i32 %36, %.037.lcssa
  %39 = add nsw i32 %38, %32
  %40 = sext i32 %39 to i64
  %41 = getelementptr inbounds i32, ptr %37, i64 %40
  %42 = load i32, ptr %41, align 4
  %43 = add i32 %42, 2
  store i32 %43, ptr %41, align 4
  %44 = add nsw i32 %.03458.us, 1
  %indvars.iv.next69 = add nsw i64 %indvars.iv68, 1
  %exitcond.not = icmp eq i32 %44, %spec.select
  br i1 %exitcond.not, label %._crit_edge.us, label %28, !llvm.loop !12

._crit_edge.us:                                   ; preds = %28
  %45 = add nsw i32 %.03660.us, 1
  %indvars.iv.next = add i32 %indvars.iv, %1
  %exitcond71.not = icmp eq i32 %45, %.033
  br i1 %exitcond71.not, label %._crit_edge62, label %.lr.ph59.us, !llvm.loop !13

.lr.ph55:                                         ; preds = %.lr.ph55.preheader, %.lr.ph55
  %.03754 = phi i32 [ %47, %.lr.ph55 ], [ 0, %.lr.ph55.preheader ]
  %.03853 = phi i32 [ %46, %.lr.ph55 ], [ %19, %.lr.ph55.preheader ]
  %46 = ashr i32 %.03853, 1
  %47 = add nuw nsw i32 %.03754, 1
  %.not45 = icmp ult i32 %46, 2
  br i1 %.not45, label %.preheader47, label %.lr.ph55, !llvm.loop !14

._crit_edge62:                                    ; preds = %._crit_edge.us, %.preheader47
  %48 = load i32, ptr %0, align 8
  %.not46 = icmp eq i32 %48, 0
  br i1 %.not46, label %58, label %.preheader

.preheader:                                       ; preds = %._crit_edge62
  %49 = load i32, ptr %14, align 8
  %.not65 = icmp eq i32 %49, 0
  br i1 %.not65, label %.loopexit, label %.lr.ph64

.lr.ph64:                                         ; preds = %.preheader, %.lr.ph64
  %indvars.iv72 = phi i64 [ %indvars.iv.next73, %.lr.ph64 ], [ 0, %.preheader ]
  %50 = load i32, ptr %0, align 8
  %51 = load ptr, ptr %12, align 8
  %52 = getelementptr inbounds nuw i32, ptr %51, i64 %indvars.iv72
  %53 = load i32, ptr %52, align 4
  %54 = udiv i32 %53, %50
  store i32 %54, ptr %52, align 4
  %indvars.iv.next73 = add nuw nsw i64 %indvars.iv72, 1
  %55 = load i32, ptr %14, align 8
  %56 = zext i32 %55 to i64
  %57 = icmp samesign ult i64 %indvars.iv.next73, %56
  br i1 %57, label %.lr.ph64, label %.loopexit, !llvm.loop !15

58:                                               ; preds = %._crit_edge62
  %59 = load ptr, ptr %12, align 8
  %60 = load i32, ptr %14, align 8
  %61 = zext i32 %60 to i64
  %62 = shl nuw nsw i64 %61, 2
  tail call void @llvm.memset.p0.i64(ptr align 4 %59, i8 0, i64 %62, i1 false)
  br label %.loopexit

.loopexit:                                        ; preds = %.lr.ph64, %.preheader, %58
  ret void
}